; Function Attrs: mustprogress nofree norecurse nosync nounwind willreturn memory(argmem: read) uwtable
define internal zeroext i1 @dataIsMoveRight(ptr noundef readonly captures(none) %0, ptr noundef readonly captures(none) %1) #7 {
  %3 = getelementptr inbounds nuw i8, ptr %1, i64 24
  %4 = getelementptr inbounds nuw i8, ptr %1, i64 16
  %5 = load i16, ptr %4, align 4
  %6 = zext i16 %5 to i64
  %7 = getelementptr inbounds nuw i8, ptr %1, i64 %6
  %8 = load i32, ptr %7, align 4
  %9 = icmp eq i32 %8, -1
  br i1 %9, label %35, label %10

10:                                               ; preds = %2
  %11 = getelementptr inbounds nuw i8, ptr %7, i64 6
  %12 = load i16, ptr %11, align 2
  %13 = and i16 %12, 4
  %.not = icmp eq i16 %13, 0
  br i1 %.not, label %14, label %35

14:                                               ; preds = %10
  %15 = getelementptr inbounds nuw i8, ptr %0, i64 122
  %.val.i = load i16, ptr %15, align 2
  %16 = getelementptr i8, ptr %0, i64 124
  %.val5.i = load i16, ptr %16, align 2
  %17 = zext i16 %.val.i to i64
  %18 = zext i16 %.val5.i to i64
  %19 = shl nuw i64 %17, 48
  %20 = shl nuw nsw i64 %18, 32
  %21 = or disjoint i64 %20, %19
  %22 = getelementptr i8, ptr %0, i64 126
  %.val8.i = load i16, ptr %22, align 2
  %23 = zext i16 %.val8.i to i64
  %24 = or disjoint i64 %21, %23
  %.val6.i = load i16, ptr %3, align 2
  %25 = getelementptr i8, ptr %1, i64 26
  %.val7.i = load i16, ptr %25, align 2
  %26 = zext i16 %.val6.i to i64
  %27 = zext i16 %.val7.i to i64
  %28 = shl nuw i64 %26, 48
  %29 = shl nuw nsw i64 %27, 32
  %30 = or disjoint i64 %29, %28
  %31 = getelementptr i8, ptr %1, i64 28
  %.val9.i = load i16, ptr %31, align 2
  %32 = zext i16 %.val9.i to i64
  %33 = or disjoint i64 %30, %32
  %34 = icmp ugt i64 %24, %33
  br label %35

35:                                               ; preds = %10, %2, %14
  %.0 = phi i1 [ %34, %14 ], [ false, %2 ], [ true, %10 ]
  ret i1 %.0
}